#include <math.h>
#include <stdio.h>
#include <stdlib.h>
#include <string.h>

int main(){
	int i,k=0,len,panduan=0;
	double r,n;
	char a[501],b[501];
	scanf("%lf%s%s",&n,&a,&b);
	len=strlen(a);
	if(len!=strlen(b)){
		panduan=1;
	}
	else{
	for(i=0;i<len;i++){
		if((a[i]!='T'&&a[i]!='A'&&a[i]!='C'&&a[i]!='G')||(b[i]!='A'&&b[i]!='T'&&b[i]!='G'&&b[i]!='C')){
			panduan=1;
			break;
		}
		if(a[i]==b[i]){
			k++;
		}
	}
	r=1.0*k/len;
	}
	if(panduan==1){
		printf("error");
	}
	else{
		if(r>n){
		printf("yes");
		}
		else{
			printf("no");
		}
	}
	


	return 0;
}